; Function Attrs: nounwind uwtable
define dso_local i64 @hashoidvectorextended(ptr noundef readonly captures(none) %0) local_unnamed_addr #0 {
  %2 = getelementptr inbounds nuw i8, ptr %0, i64 32
  %3 = load i64, ptr %2, align 8
  %4 = inttoptr i64 %3 to ptr
  %5 = getelementptr inbounds nuw i8, ptr %4, i64 24
  %6 = getelementptr inbounds nuw i8, ptr %4, i64 16
  %7 = load i32, ptr %6, align 4
  %8 = shl i32 %7, 2
  %9 = getelementptr inbounds nuw i8, ptr %0, i64 48
  %10 = load i64, ptr %9, align 8
  %11 = tail call i64 @hash_bytes_extended(ptr noundef nonnull %5, i32 noundef %8, i64 noundef %10) #6
  ret i64 %11
}